; Function Attrs: mustprogress uwtable
define hidden noundef nonnull ptr @_ZNK3ue220ComponentAtomicGroup5cloneEv(ptr noundef nonnull align 8 dereferenceable(88) %0) unnamed_addr #0 align 2 personality ptr @__gxx_personality_v0 {
  %2 = tail call noalias noundef nonnull dereferenceable(88) ptr @_Znwm(i64 noundef 88) #7
  invoke void @_ZN3ue217ComponentSequenceC2ERKS0_(ptr noundef nonnull align 8 dereferenceable(88) %2, ptr noundef nonnull align 8 dereferenceable(88) %0)
          to label %3 unwind label %4

3:                                                ; preds = %1
  store ptr getelementptr inbounds nuw inrange(-16, 144) (i8, ptr @_ZTVN3ue220ComponentAtomicGroupE, i64 16), ptr %2, align 8
  ret ptr %2

4:                                                ; preds = %1
  %5 = landingpad { ptr, i32 }
          cleanup
  tail call void @_ZdlPv(ptr noundef nonnull %2) #8
  resume { ptr, i32 } %5
}